; Function Attrs: mustprogress nofree norecurse nosync nounwind ssp willreturn memory(argmem: readwrite) uwtable
define void @_ZN6open3d8geometry20HalfEdgeTriangleMesh8HalfEdgeC2ERKN5Eigen6MatrixIiLi2ELi1ELi0ELi2ELi1EEEiii(ptr noundef nonnull writeonly align 4 captures(none) dereferenceable(20) initializes((0, 20)) %0, ptr noundef nonnull readonly align 4 captures(none) dereferenceable(8) %1, i32 noundef %2, i32 noundef %3, i32 noundef %4) unnamed_addr #4 align 2 {
  store i32 %3, ptr %0, align 4, !tbaa !40
  %6 = getelementptr inbounds nuw i8, ptr %0, i64 4
  store i32 %4, ptr %6, align 4, !tbaa !47
  %7 = getelementptr inbounds nuw i8, ptr %0, i64 8
  %8 = load i64, ptr %1, align 4, !tbaa !38
  store i64 %8, ptr %7, align 4, !tbaa !38
  %9 = getelementptr inbounds nuw i8, ptr %0, i64 16
  store i32 %2, ptr %9, align 4, !tbaa !48
  ret void
}